target datalayout = "e-m:e-p270:32:32-p271:32:32-p272:64:64-i64:64-i128:128-f80:128-n8:16:32:64-S128"
target triple = "x86_64-pc-linux-gnu"

%class.Draw = type { i8, ptr, ptr, ptr, ptr, ptr, ptr, ptr, ptr, %struct.b2DebugDraw, ptr, ptr, ptr, ptr }
%struct.b2DebugDraw = type { ptr, ptr, ptr, ptr, ptr, ptr, ptr, ptr, ptr, %struct.b2AABB, i8, i8, i8, i8, i8, i8, i8, i8, i8, i8, i8, i8, ptr }
%struct.b2AABB = type { %struct.b2Vec2, %struct.b2Vec2 }
%struct.b2Vec2 = type { float, float }
%struct.b2Transform = type { %struct.b2Vec2, %struct.b2Rot }
%struct.b2Rot = type { float, float }

@_ZL11b2Vec2_zero = internal constant %struct.b2Vec2 zeroinitializer, align 4

; Function Attrs: inlinehint mustprogress nounwind uwtable
define linkonce_odr dso_local <2 x float> @_Z16b2TransformPoint11b2Transform6b2Vec2(<2 x float> %0, <2 x float> %1, <2 x float> %2) #7 comdat {
  %4 = alloca %struct.b2Vec2, align 4
  %5 = alloca %struct.b2Transform, align 4
  %6 = alloca %struct.b2Vec2, align 4
  %7 = alloca float, align 4
  %8 = alloca float, align 4
  %9 = getelementptr inbounds nuw { <2 x float>, <2 x float> }, ptr %5, i32 0, i32 0
  store <2 x float> %0, ptr %9, align 4
  %10 = getelementptr inbounds nuw { <2 x float>, <2 x float> }, ptr %5, i32 0, i32 1
  store <2 x float> %1, ptr %10, align 4
  store <2 x float> %2, ptr %6, align 4
  call void @llvm.lifetime.start.p0(i64 4, ptr %7) #1
  %11 = getelementptr inbounds nuw %struct.b2Transform, ptr %5, i32 0, i32 1
  %12 = getelementptr inbounds nuw %struct.b2Rot, ptr %11, i32 0, i32 0
  %13 = load float, ptr %12, align 4, !tbaa !179
  %14 = getelementptr inbounds nuw %struct.b2Vec2, ptr %6, i32 0, i32 0
  %15 = load float, ptr %14, align 4, !tbaa !15
  %16 = fmul float %13, %15
  %17 = getelementptr inbounds nuw %struct.b2Transform, ptr %5, i32 0, i32 1
  %18 = getelementptr inbounds nuw %struct.b2Rot, ptr %17, i32 0, i32 1
  %19 = load float, ptr %18, align 4, !tbaa !180
  %20 = getelementptr inbounds nuw %struct.b2Vec2, ptr %6, i32 0, i32 1
  %21 = load float, ptr %20, align 4, !tbaa !16
  %22 = fmul float %19, %21
  %23 = fsub float %16, %22
  %24 = getelementptr inbounds nuw %struct.b2Transform, ptr %5, i32 0, i32 0
  %25 = getelementptr inbounds nuw %struct.b2Vec2, ptr %24, i32 0, i32 0
  %26 = load float, ptr %25, align 4, !tbaa !181
  %27 = fadd float %23, %26
  store float %27, ptr %7, align 4, !tbaa !18
  call void @llvm.lifetime.start.p0(i64 4, ptr %8) #1
  %28 = getelementptr inbounds nuw %struct.b2Transform, ptr %5, i32 0, i32 1
  %29 = getelementptr inbounds nuw %struct.b2Rot, ptr %28, i32 0, i32 1
  %30 = load float, ptr %29, align 4, !tbaa !180
  %31 = getelementptr inbounds nuw %struct.b2Vec2, ptr %6, i32 0, i32 0
  %32 = load float, ptr %31, align 4, !tbaa !15
  %33 = fmul float %30, %32
  %34 = getelementptr inbounds nuw %struct.b2Transform, ptr %5, i32 0, i32 1
  %35 = getelementptr inbounds nuw %struct.b2Rot, ptr %34, i32 0, i32 0
  %36 = load float, ptr %35, align 4, !tbaa !179
  %37 = getelementptr inbounds nuw %struct.b2Vec2, ptr %6, i32 0, i32 1
  %38 = load float, ptr %37, align 4, !tbaa !16
  %39 = fmul float %36, %38
  %40 = fadd float %33, %39
  %41 = getelementptr inbounds nuw %struct.b2Transform, ptr %5, i32 0, i32 0
  %42 = getelementptr inbounds nuw %struct.b2Vec2, ptr %41, i32 0, i32 1
  %43 = load float, ptr %42, align 4, !tbaa !182
  %44 = fadd float %40, %43
  store float %44, ptr %8, align 4, !tbaa !18
  %45 = getelementptr inbounds nuw %struct.b2Vec2, ptr %4, i32 0, i32 0
  %46 = load float, ptr %7, align 4, !tbaa !18
  store float %46, ptr %45, align 4, !tbaa !15
  %47 = getelementptr inbounds nuw %struct.b2Vec2, ptr %4, i32 0, i32 1
  %48 = load float, ptr %8, align 4, !tbaa !18
  store float %48, ptr %47, align 4, !tbaa !16
  call void @llvm.lifetime.end.p0(i64 4, ptr %8) #1
  call void @llvm.lifetime.end.p0(i64 4, ptr %7) #1
  %49 = load <2 x float>, ptr %4, align 4
  ret <2 x float> %49
}

; Function Attrs: mustprogress uwtable
define dso_local void @_ZN4Draw15DrawSolidCircleE11b2Transform6b2Vec2f10b2HexColor(ptr noundef nonnull align 8 dereferenceable(216) %0, <2 x float> %1, <2 x float> %2, <2 x float> %3, float noundef %4, i32 noundef %5) #6 align 2 {
  %7 = alloca %struct.b2Transform, align 4
  %8 = alloca %struct.b2Vec2, align 4
  %9 = alloca ptr, align 8
  %10 = alloca float, align 4
  %11 = alloca i32, align 4
  %12 = alloca %struct.b2Vec2, align 4
  %13 = alloca %struct.b2Transform, align 4
  %14 = alloca %struct.b2Vec2, align 4
  %15 = getelementptr inbounds nuw { <2 x float>, <2 x float> }, ptr %7, i32 0, i32 0
  store <2 x float> %1, ptr %15, align 4
  %16 = getelementptr inbounds nuw { <2 x float>, <2 x float> }, ptr %7, i32 0, i32 1
  store <2 x float> %2, ptr %16, align 4
  store <2 x float> %3, ptr %8, align 4
  store ptr %0, ptr %9, align 8, !tbaa !30
  store float %4, ptr %10, align 4, !tbaa !18
  store i32 %5, ptr %11, align 4, !tbaa !27
  %17 = load ptr, ptr %9, align 8
  call void @llvm.lifetime.start.p0(i64 8, ptr %12) #1
  call void @llvm.memcpy.p0.p0.i64(ptr align 4 %13, ptr align 4 %7, i64 16, i1 false), !tbaa.struct !48
  call void @llvm.memcpy.p0.p0.i64(ptr align 4 %14, ptr align 4 %8, i64 8, i1 false), !tbaa.struct !17
  %18 = getelementptr inbounds nuw { <2 x float>, <2 x float> }, ptr %13, i32 0, i32 0
  %19 = load <2 x float>, ptr %18, align 4
  %20 = getelementptr inbounds nuw { <2 x float>, <2 x float> }, ptr %13, i32 0, i32 1
  %21 = load <2 x float>, ptr %20, align 4
  %22 = load <2 x float>, ptr %14, align 4
  %23 = call <2 x float> @_Z16b2TransformPoint11b2Transform6b2Vec2(<2 x float> %19, <2 x float> %21, <2 x float> %22)
  store <2 x float> %23, ptr %12, align 4
  %24 = getelementptr inbounds nuw %struct.b2Transform, ptr %7, i32 0, i32 0
  call void @llvm.memcpy.p0.p0.i64(ptr align 4 %24, ptr align 4 %12, i64 8, i1 false), !tbaa.struct !17
  call void @llvm.lifetime.end.p0(i64 8, ptr %12) #1
  %25 = getelementptr inbounds nuw %class.Draw, ptr %17, i32 0, i32 6
  %26 = load ptr, ptr %25, align 8, !tbaa !51
  %27 = load float, ptr %10, align 4, !tbaa !18
  %28 = load i32, ptr %11, align 4, !tbaa !27
  call void @_ZN14GLSolidCircles9AddCircleERK11b2Transformf10b2HexColor(ptr noundef nonnull align 8 dereferenceable(48) %26, ptr noundef nonnull align 4 dereferenceable(16) %7, float noundef %27, i32 noundef %28)
  ret void
}

; Function Attrs: mustprogress uwtable
define dso_local void @_Z18DrawSolidCircleFcn11b2Transformf10b2HexColorPv(<2 x float> %0, <2 x float> %1, float noundef %2, i32 noundef %3, ptr noundef %4) #6 {
  %6 = alloca %struct.b2Transform, align 4
  %7 = alloca float, align 4
  %8 = alloca i32, align 4
  %9 = alloca ptr, align 8
  %10 = alloca %struct.b2Transform, align 4
  %11 = alloca %struct.b2Vec2, align 4
  %12 = getelementptr inbounds nuw { <2 x float>, <2 x float> }, ptr %6, i32 0, i32 0
  store <2 x float> %0, ptr %12, align 4
  %13 = getelementptr inbounds nuw { <2 x float>, <2 x float> }, ptr %6, i32 0, i32 1
  store <2 x float> %1, ptr %13, align 4
  store float %2, ptr %7, align 4, !tbaa !18
  store i32 %3, ptr %8, align 4, !tbaa !27
  store ptr %4, ptr %9, align 8, !tbaa !29
  %14 = load ptr, ptr %9, align 8, !tbaa !29
  call void @llvm.memcpy.p0.p0.i64(ptr align 4 %10, ptr align 4 %6, i64 16, i1 false), !tbaa.struct !48
  call void @llvm.memcpy.p0.p0.i64(ptr align 4 %11, ptr align 4 @_ZL11b2Vec2_zero, i64 8, i1 false), !tbaa.struct !17
  %15 = load float, ptr %7, align 4, !tbaa !18
  %16 = load i32, ptr %8, align 4, !tbaa !27
  %17 = getelementptr inbounds nuw { <2 x float>, <2 x float> }, ptr %10, i32 0, i32 0
  %18 = load <2 x float>, ptr %17, align 4
  %19 = getelementptr inbounds nuw { <2 x float>, <2 x float> }, ptr %10, i32 0, i32 1
  %20 = load <2 x float>, ptr %19, align 4
  %21 = load <2 x float>, ptr %11, align 4
  call void @_ZN4Draw15DrawSolidCircleE11b2Transform6b2Vec2f10b2HexColor(ptr noundef nonnull align 8 dereferenceable(216) %14, <2 x float> %18, <2 x float> %20, <2 x float> %21, float noundef %15, i32 noundef %16)
  ret void
}