; Function Attrs: mustprogress uwtable
define dso_local void @_Z18DrawSolidCircleFcn11b2Transformf10b2HexColorPv(<2 x float> %0, <2 x float> %1, float noundef %2, i32 noundef %3, ptr noundef readonly captures(none) %4) #5 {
  %6 = alloca %struct.b2Transform, align 8
  call void @llvm.lifetime.start.p0(i64 16, ptr nonnull %6)
  %7 = getelementptr inbounds nuw i8, ptr %6, i64 8
  store <2 x float> %1, ptr %7, align 8
  %.sroa.3.8.vec.extract.i.i = extractelement <2 x float> %1, i64 0
  %8 = fmul float %.sroa.3.8.vec.extract.i.i, 0.000000e+00
  %.sroa.3.12.vec.extract.i.i = extractelement <2 x float> %1, i64 1
  %9 = fmul float %.sroa.3.12.vec.extract.i.i, 0.000000e+00
  %10 = fsub float %8, %9
  %.sroa.06.0.vec.extract.i.i = extractelement <2 x float> %0, i64 0
  %11 = fadd float %.sroa.06.0.vec.extract.i.i, %10
  %12 = fadd float %9, %8
  %.sroa.06.4.vec.extract.i.i = extractelement <2 x float> %0, i64 1
  %13 = fadd float %.sroa.06.4.vec.extract.i.i, %12
  %.sroa.011.0.vec.insert.i.i = insertelement <2 x float> poison, float %11, i64 0
  %.sroa.011.4.vec.insert.i.i = insertelement <2 x float> %.sroa.011.0.vec.insert.i.i, float %13, i64 1
  store <2 x float> %.sroa.011.4.vec.insert.i.i, ptr %6, align 8
  %14 = getelementptr inbounds nuw i8, ptr %4, i64 48
  %15 = load ptr, ptr %14, align 8, !tbaa !35
  call void @_ZN14GLSolidCircles9AddCircleERK11b2Transformf10b2HexColor(ptr noundef nonnull align 8 dereferenceable(48) %15, ptr noundef nonnull align 4 dereferenceable(16) %6, float noundef %2, i32 noundef %3)
  call void @llvm.lifetime.end.p0(i64 16, ptr nonnull %6)
  ret void
}